; Function Attrs: nounwind uwtable
define range(i32 0, 2) i32 @H5D_top_term_package() local_unnamed_addr #0 {
  %1 = load i8, ptr @H5D_init_g, align 1, !tbaa !3, !range !7, !noundef !8
  %2 = trunc nuw i8 %1 to i1
  %3 = load i8, ptr @H5_libterm_g, align 1, !range !7
  %4 = trunc nuw i8 %3 to i1
  %5 = xor i1 %4, true
  %6 = select i1 %2, i1 true, i1 %5
  br i1 %6, label %7, label %13, !prof !9

7:                                                ; preds = %0
  %.b3 = load i1, ptr @H5D_top_package_initialize_s, align 1
  br i1 %.b3, label %8, label %13

8:                                                ; preds = %7
  %9 = tail call i64 @H5I_nmembers(i32 noundef 5) #12
  %10 = icmp slt i64 %9, 1
  br i1 %10, label %.critedge, label %11

11:                                               ; preds = %8
  %12 = tail call i32 @H5I_clear_type(i32 noundef 5, i1 noundef zeroext true, i1 noundef zeroext false) #12
  br label %13

.critedge:                                        ; preds = %8
  store i1 false, ptr @H5D_top_package_initialize_s, align 1
  br label %13

13:                                               ; preds = %11, %7, %.critedge, %0
  %.0 = phi i32 [ 0, %.critedge ], [ 1, %11 ], [ 0, %7 ], [ 0, %0 ]
  ret i32 %.0
}